target datalayout = "e-m:e-p270:32:32-p271:32:32-p272:64:64-i64:64-i128:128-f80:128-n8:16:32:64-S128"
target triple = "x86_64-pc-linux-gnu"

%struct.Agobj_s = type { %struct.Agtag_s, ptr }
%struct.Agtag_s = type { i32, i64 }
%struct.Agraphinfo_t = type { %struct.Agrec_s, ptr, ptr, %struct.boxf, [4 x %struct.pointf_s], i8, i8, i8, i8, i32, double, double, i16, ptr, ptr, ptr, ptr, i32, ptr, ptr, ptr, ptr, i16, i16, i32, ptr, ptr, ptr, ptr, ptr, i32, ptr, ptr, %struct.nlist_t, ptr, ptr, i32, i32, i8, i8, i32, i32, i32, ptr, ptr, ptr, ptr, i8, i8, i8, i8, i8 }
%struct.Agrec_s = type { ptr, ptr }
%struct.boxf = type { %struct.pointf_s, %struct.pointf_s }
%struct.pointf_s = type { double, double }
%struct.nlist_t = type { ptr, i64 }

@stderr = external global ptr, align 8
@.str.1 = private unnamed_addr constant [58 x i8] c"integer overflow when trying to allocate %zu * %zu bytes\0A\00", align 1
@.str.2 = private unnamed_addr constant [49 x i8] c"out of memory when trying to allocate %zu bytes\0A\00", align 1
@.str.5 = private unnamed_addr constant [13 x i8] c"Agraphinfo_t\00", align 1

; Function Attrs: inlinehint nounwind uwtable
define internal ptr @gv_calloc(i64 noundef %0, i64 noundef %1) #3 {
  %3 = alloca i64, align 8
  %4 = alloca i64, align 8
  %5 = alloca ptr, align 8
  store i64 %0, ptr %3, align 8, !tbaa !114
  store i64 %1, ptr %4, align 8, !tbaa !114
  %6 = load i64, ptr %3, align 8, !tbaa !114
  %7 = icmp ugt i64 %6, 0
  br i1 %7, label %8, label %18

8:                                                ; preds = %2
  %9 = load i64, ptr %3, align 8, !tbaa !114
  %10 = udiv i64 -1, %9
  %11 = load i64, ptr %4, align 8, !tbaa !114
  %12 = icmp ult i64 %10, %11
  br i1 %12, label %13, label %18

13:                                               ; preds = %8
  %14 = load ptr, ptr @stderr, align 8, !tbaa !122
  %15 = load i64, ptr %3, align 8, !tbaa !114
  %16 = load i64, ptr %4, align 8, !tbaa !114
  %17 = call i32 (ptr, ptr, ...) @fprintf(ptr noundef %14, ptr noundef @.str.1, i64 noundef %15, i64 noundef %16) #12
  call void @graphviz_exit(i32 noundef 1) #13
  unreachable

18:                                               ; preds = %8, %2
  call void @llvm.lifetime.start.p0(i64 8, ptr %5) #12
  %19 = load i64, ptr %3, align 8, !tbaa !114
  %20 = load i64, ptr %4, align 8, !tbaa !114
  %21 = call noalias ptr @calloc(i64 noundef %19, i64 noundef %20) #14
  store ptr %21, ptr %5, align 8, !tbaa !120
  %22 = load i64, ptr %3, align 8, !tbaa !114
  %23 = icmp ugt i64 %22, 0
  br i1 %23, label %24, label %36

24:                                               ; preds = %18
  %25 = load i64, ptr %4, align 8, !tbaa !114
  %26 = icmp ugt i64 %25, 0
  br i1 %26, label %27, label %36

27:                                               ; preds = %24
  %28 = load ptr, ptr %5, align 8, !tbaa !120
  %29 = icmp eq ptr %28, null
  br i1 %29, label %30, label %36

30:                                               ; preds = %27
  %31 = load ptr, ptr @stderr, align 8, !tbaa !122
  %32 = load i64, ptr %3, align 8, !tbaa !114
  %33 = load i64, ptr %4, align 8, !tbaa !114
  %34 = mul i64 %32, %33
  %35 = call i32 (ptr, ptr, ...) @fprintf(ptr noundef %31, ptr noundef @.str.2, i64 noundef %34) #12
  call void @graphviz_exit(i32 noundef 1) #13
  unreachable

36:                                               ; preds = %27, %24, %18
  %37 = load ptr, ptr %5, align 8, !tbaa !120
  call void @llvm.lifetime.end.p0(i64 8, ptr %5) #12
  ret ptr %37
}

; Function Attrs: nounwind uwtable
define internal void @copyCluster(ptr noundef %0, ptr noundef %1) #0 {
  %3 = alloca ptr, align 8
  %4 = alloca ptr, align 8
  %5 = alloca i32, align 4
  %6 = alloca i32, align 4
  %7 = alloca ptr, align 8
  store ptr %0, ptr %3, align 8, !tbaa !3
  store ptr %1, ptr %4, align 8, !tbaa !3
  call void @llvm.lifetime.start.p0(i64 4, ptr %5) #12
  call void @llvm.lifetime.start.p0(i64 4, ptr %6) #12
  call void @llvm.lifetime.start.p0(i64 8, ptr %7) #12
  %8 = load ptr, ptr %4, align 8, !tbaa !3
  %9 = call ptr @agbindrec(ptr noundef %8, ptr noundef @.str.5, i32 noundef 400, i32 noundef 1)
  %10 = load ptr, ptr %4, align 8, !tbaa !3
  %11 = getelementptr inbounds nuw %struct.Agobj_s, ptr %10, i32 0, i32 1
  %12 = load ptr, ptr %11, align 8, !tbaa !16
  %13 = getelementptr inbounds nuw %struct.Agraphinfo_t, ptr %12, i32 0, i32 3
  %14 = load ptr, ptr %3, align 8, !tbaa !3
  %15 = getelementptr inbounds nuw %struct.Agobj_s, ptr %14, i32 0, i32 1
  %16 = load ptr, ptr %15, align 8, !tbaa !16
  %17 = getelementptr inbounds nuw %struct.Agraphinfo_t, ptr %16, i32 0, i32 3
  call void @llvm.memcpy.p0.p0.i64(ptr align 8 %13, ptr align 8 %17, i64 32, i1 false), !tbaa.struct !160
  %18 = load ptr, ptr %3, align 8, !tbaa !3
  %19 = getelementptr inbounds nuw %struct.Agobj_s, ptr %18, i32 0, i32 1
  %20 = load ptr, ptr %19, align 8, !tbaa !16
  %21 = getelementptr inbounds nuw %struct.Agraphinfo_t, ptr %20, i32 0, i32 50
  %22 = load i8, ptr %21, align 1, !tbaa !161
  %23 = load ptr, ptr %4, align 8, !tbaa !3
  %24 = getelementptr inbounds nuw %struct.Agobj_s, ptr %23, i32 0, i32 1
  %25 = load ptr, ptr %24, align 8, !tbaa !16
  %26 = getelementptr inbounds nuw %struct.Agraphinfo_t, ptr %25, i32 0, i32 50
  store i8 %22, ptr %26, align 1, !tbaa !161
  %27 = load ptr, ptr %4, align 8, !tbaa !3
  %28 = getelementptr inbounds nuw %struct.Agobj_s, ptr %27, i32 0, i32 1
  %29 = load ptr, ptr %28, align 8, !tbaa !16
  %30 = getelementptr inbounds nuw %struct.Agraphinfo_t, ptr %29, i32 0, i32 4
  %31 = getelementptr inbounds [4 x %struct.pointf_s], ptr %30, i64 0, i64 0
  %32 = load ptr, ptr %3, align 8, !tbaa !3
  %33 = getelementptr inbounds nuw %struct.Agobj_s, ptr %32, i32 0, i32 1
  %34 = load ptr, ptr %33, align 8, !tbaa !16
  %35 = getelementptr inbounds nuw %struct.Agraphinfo_t, ptr %34, i32 0, i32 4
  %36 = getelementptr inbounds [4 x %struct.pointf_s], ptr %35, i64 0, i64 0
  call void @llvm.memcpy.p0.p0.i64(ptr align 8 %31, ptr align 8 %36, i64 64, i1 false)
  %37 = load ptr, ptr %3, align 8, !tbaa !3
  %38 = getelementptr inbounds nuw %struct.Agobj_s, ptr %37, i32 0, i32 1
  %39 = load ptr, ptr %38, align 8, !tbaa !16
  %40 = getelementptr inbounds nuw %struct.Agraphinfo_t, ptr %39, i32 0, i32 24
  %41 = load i32, ptr %40, align 4, !tbaa !142
  %42 = load ptr, ptr %4, align 8, !tbaa !3
  %43 = getelementptr inbounds nuw %struct.Agobj_s, ptr %42, i32 0, i32 1
  %44 = load ptr, ptr %43, align 8, !tbaa !16
  %45 = getelementptr inbounds nuw %struct.Agraphinfo_t, ptr %44, i32 0, i32 24
  store i32 %41, ptr %45, align 4, !tbaa !142
  store i32 %41, ptr %5, align 4, !tbaa !72
  %46 = load i32, ptr %5, align 4, !tbaa !72
  %47 = add nsw i32 %46, 1
  %48 = sext i32 %47 to i64
  %49 = call ptr @gv_calloc(i64 noundef %48, i64 noundef 8)
  %50 = load ptr, ptr %4, align 8, !tbaa !3
  %51 = getelementptr inbounds nuw %struct.Agobj_s, ptr %50, i32 0, i32 1
  %52 = load ptr, ptr %51, align 8, !tbaa !16
  %53 = getelementptr inbounds nuw %struct.Agraphinfo_t, ptr %52, i32 0, i32 25
  store ptr %49, ptr %53, align 8, !tbaa !95
  store i32 1, ptr %6, align 4, !tbaa !72
  br label %54

54:                                               ; preds = %88, %2
  %55 = load i32, ptr %6, align 4, !tbaa !72
  %56 = load i32, ptr %5, align 4, !tbaa !72
  %57 = icmp sle i32 %55, %56
  br i1 %57, label %58, label %91

58:                                               ; preds = %54
  %59 = load ptr, ptr %3, align 8, !tbaa !3
  %60 = getelementptr inbounds nuw %struct.Agobj_s, ptr %59, i32 0, i32 1
  %61 = load ptr, ptr %60, align 8, !tbaa !16
  %62 = getelementptr inbounds nuw %struct.Agraphinfo_t, ptr %61, i32 0, i32 25
  %63 = load ptr, ptr %62, align 8, !tbaa !95
  %64 = load i32, ptr %6, align 4, !tbaa !72
  %65 = sext i32 %64 to i64
  %66 = getelementptr inbounds ptr, ptr %63, i64 %65
  %67 = load ptr, ptr %66, align 8, !tbaa !3
  %68 = call ptr @mapClust(ptr noundef %67)
  store ptr %68, ptr %7, align 8, !tbaa !3
  %69 = load ptr, ptr %7, align 8, !tbaa !3
  %70 = load ptr, ptr %4, align 8, !tbaa !3
  %71 = getelementptr inbounds nuw %struct.Agobj_s, ptr %70, i32 0, i32 1
  %72 = load ptr, ptr %71, align 8, !tbaa !16
  %73 = getelementptr inbounds nuw %struct.Agraphinfo_t, ptr %72, i32 0, i32 25
  %74 = load ptr, ptr %73, align 8, !tbaa !95
  %75 = load i32, ptr %6, align 4, !tbaa !72
  %76 = sext i32 %75 to i64
  %77 = getelementptr inbounds ptr, ptr %74, i64 %76
  store ptr %69, ptr %77, align 8, !tbaa !3
  %78 = load ptr, ptr %3, align 8, !tbaa !3
  %79 = getelementptr inbounds nuw %struct.Agobj_s, ptr %78, i32 0, i32 1
  %80 = load ptr, ptr %79, align 8, !tbaa !16
  %81 = getelementptr inbounds nuw %struct.Agraphinfo_t, ptr %80, i32 0, i32 25
  %82 = load ptr, ptr %81, align 8, !tbaa !95
  %83 = load i32, ptr %6, align 4, !tbaa !72
  %84 = sext i32 %83 to i64
  %85 = getelementptr inbounds ptr, ptr %82, i64 %84
  %86 = load ptr, ptr %85, align 8, !tbaa !3
  %87 = load ptr, ptr %7, align 8, !tbaa !3
  call void @copyCluster(ptr noundef %86, ptr noundef %87)
  br label %88

88:                                               ; preds = %58
  %89 = load i32, ptr %6, align 4, !tbaa !72
  %90 = add nsw i32 %89, 1
  store i32 %90, ptr %6, align 4, !tbaa !72
  br label %54, !llvm.loop !162

91:                                               ; preds = %54
  %92 = load ptr, ptr %3, align 8, !tbaa !3
  %93 = getelementptr inbounds nuw %struct.Agobj_s, ptr %92, i32 0, i32 1
  %94 = load ptr, ptr %93, align 8, !tbaa !16
  %95 = getelementptr inbounds nuw %struct.Agraphinfo_t, ptr %94, i32 0, i32 2
  %96 = load ptr, ptr %95, align 8, !tbaa !105
  %97 = load ptr, ptr %4, align 8, !tbaa !3
  %98 = getelementptr inbounds nuw %struct.Agobj_s, ptr %97, i32 0, i32 1
  %99 = load ptr, ptr %98, align 8, !tbaa !16
  %100 = getelementptr inbounds nuw %struct.Agraphinfo_t, ptr %99, i32 0, i32 2
  store ptr %96, ptr %100, align 8, !tbaa !105
  %101 = load ptr, ptr %3, align 8, !tbaa !3
  %102 = getelementptr inbounds nuw %struct.Agobj_s, ptr %101, i32 0, i32 1
  %103 = load ptr, ptr %102, align 8, !tbaa !16
  %104 = getelementptr inbounds nuw %struct.Agraphinfo_t, ptr %103, i32 0, i32 2
  store ptr null, ptr %104, align 8, !tbaa !105
  call void @llvm.lifetime.end.p0(i64 8, ptr %7) #12
  call void @llvm.lifetime.end.p0(i64 4, ptr %6) #12
  call void @llvm.lifetime.end.p0(i64 4, ptr %5) #12
  ret void
}