; Function Attrs: nounwind uwtable
define internal fastcc void @copyCluster(ptr noundef readonly captures(none) %0, ptr noundef %1) unnamed_addr #0 {
  %3 = tail call ptr @agbindrec(ptr noundef %1, ptr noundef nonnull @.str.5, i32 noundef 400, i32 noundef 1) #15
  %4 = getelementptr inbounds nuw i8, ptr %1, i64 16
  %5 = load ptr, ptr %4, align 8, !tbaa !3
  %6 = getelementptr inbounds nuw i8, ptr %5, i64 32
  %7 = getelementptr inbounds nuw i8, ptr %0, i64 16
  %8 = load ptr, ptr %7, align 8, !tbaa !3
  %9 = getelementptr inbounds nuw i8, ptr %8, i64 32
  tail call void @llvm.memcpy.p0.p0.i64(ptr noundef nonnull align 8 dereferenceable(32) %6, ptr noundef nonnull align 8 dereferenceable(32) %9, i64 32, i1 false), !tbaa.struct !150
  %10 = load ptr, ptr %7, align 8, !tbaa !3
  %11 = getelementptr inbounds nuw i8, ptr %10, i64 395
  %12 = load i8, ptr %11, align 1, !tbaa !151
  %13 = load ptr, ptr %4, align 8, !tbaa !3
  %14 = getelementptr inbounds nuw i8, ptr %13, i64 395
  store i8 %12, ptr %14, align 1, !tbaa !151
  %15 = getelementptr inbounds nuw i8, ptr %13, i64 64
  %16 = getelementptr inbounds nuw i8, ptr %10, i64 64
  tail call void @llvm.memcpy.p0.p0.i64(ptr noundef nonnull align 8 dereferenceable(64) %15, ptr noundef nonnull align 8 dereferenceable(64) %16, i64 64, i1 false)
  %17 = load ptr, ptr %7, align 8, !tbaa !3
  %18 = getelementptr inbounds nuw i8, ptr %17, i64 236
  %19 = load i32, ptr %18, align 4, !tbaa !124
  %20 = load ptr, ptr %4, align 8, !tbaa !3
  %21 = getelementptr inbounds nuw i8, ptr %20, i64 236
  store i32 %19, ptr %21, align 4, !tbaa !124
  %22 = add i32 %19, 1
  %23 = sext i32 %22 to i64
  %.not.i = icmp eq i32 %22, 0
  br i1 %.not.i, label %gv_calloc.exit.thread, label %26

gv_calloc.exit.thread:                            ; preds = %2
  %24 = tail call noalias ptr @calloc(i64 noundef 0, i64 noundef 8) #16
  %25 = getelementptr inbounds nuw i8, ptr %20, i64 240
  store ptr %24, ptr %25, align 8, !tbaa !96
  br label %._crit_edge

26:                                               ; preds = %2
  %mul.ov.i = icmp slt i32 %19, -1
  br i1 %mul.ov.i, label %27, label %30

27:                                               ; preds = %26
  %28 = load ptr, ptr @stderr, align 8, !tbaa !39
  %29 = tail call i32 (ptr, ptr, ...) @fprintf(ptr noundef %28, ptr noundef nonnull @.str.1, i64 noundef %23, i64 noundef 8) #17
  tail call fastcc void @graphviz_exit() #18
  unreachable

30:                                               ; preds = %26
  %31 = tail call noalias ptr @calloc(i64 noundef %23, i64 noundef 8) #16
  %32 = icmp eq ptr %31, null
  br i1 %32, label %33, label %gv_calloc.exit

33:                                               ; preds = %30
  %34 = load ptr, ptr @stderr, align 8, !tbaa !39
  %35 = shl nuw nsw i64 %23, 3
  %36 = tail call i32 (ptr, ptr, ...) @fprintf(ptr noundef %34, ptr noundef nonnull @.str.2, i64 noundef %35) #17
  tail call fastcc void @graphviz_exit() #18
  unreachable

gv_calloc.exit:                                   ; preds = %30
  %37 = getelementptr inbounds nuw i8, ptr %20, i64 240
  store ptr %31, ptr %37, align 8, !tbaa !96
  %.not24 = icmp eq i32 %19, 0
  br i1 %.not24, label %._crit_edge, label %.lr.ph.preheader

.lr.ph.preheader:                                 ; preds = %gv_calloc.exit
  %wide.trip.count = zext i32 %22 to i64
  br label %.lr.ph

.lr.ph:                                           ; preds = %.lr.ph.preheader, %.lr.ph
  %indvars.iv = phi i64 [ 1, %.lr.ph.preheader ], [ %indvars.iv.next, %.lr.ph ]
  %38 = load ptr, ptr %7, align 8, !tbaa !3
  %39 = getelementptr inbounds nuw i8, ptr %38, i64 240
  %40 = load ptr, ptr %39, align 8, !tbaa !96
  %41 = getelementptr inbounds nuw ptr, ptr %40, i64 %indvars.iv
  %42 = load ptr, ptr %41, align 8, !tbaa !125
  %43 = tail call ptr @mapClust(ptr noundef %42) #15
  %44 = load ptr, ptr %4, align 8, !tbaa !3
  %45 = getelementptr inbounds nuw i8, ptr %44, i64 240
  %46 = load ptr, ptr %45, align 8, !tbaa !96
  %47 = getelementptr inbounds nuw ptr, ptr %46, i64 %indvars.iv
  store ptr %43, ptr %47, align 8, !tbaa !125
  %48 = load ptr, ptr %7, align 8, !tbaa !3
  %49 = getelementptr inbounds nuw i8, ptr %48, i64 240
  %50 = load ptr, ptr %49, align 8, !tbaa !96
  %51 = getelementptr inbounds nuw ptr, ptr %50, i64 %indvars.iv
  %52 = load ptr, ptr %51, align 8, !tbaa !125
  tail call fastcc void @copyCluster(ptr noundef %52, ptr noundef %43)
  %indvars.iv.next = add nuw nsw i64 %indvars.iv, 1
  %exitcond.not = icmp eq i64 %indvars.iv.next, %wide.trip.count
  br i1 %exitcond.not, label %._crit_edge.loopexit, label %.lr.ph, !llvm.loop !152

._crit_edge.loopexit:                             ; preds = %.lr.ph
  %.pre = load ptr, ptr %7, align 8, !tbaa !3
  %.pre27 = load ptr, ptr %4, align 8, !tbaa !3
  br label %._crit_edge

._crit_edge:                                      ; preds = %gv_calloc.exit.thread, %._crit_edge.loopexit, %gv_calloc.exit
  %53 = phi ptr [ %.pre27, %._crit_edge.loopexit ], [ %20, %gv_calloc.exit ], [ %20, %gv_calloc.exit.thread ]
  %54 = phi ptr [ %.pre, %._crit_edge.loopexit ], [ %17, %gv_calloc.exit ], [ %17, %gv_calloc.exit.thread ]
  %55 = getelementptr inbounds nuw i8, ptr %54, i64 24
  %56 = load ptr, ptr %55, align 8, !tbaa !106
  %57 = getelementptr inbounds nuw i8, ptr %53, i64 24
  store ptr %56, ptr %57, align 8, !tbaa !106
  store ptr null, ptr %55, align 8, !tbaa !106
  ret void
}